target datalayout = "e-m:e-p270:32:32-p271:32:32-p272:64:64-i64:64-i128:128-f80:128-n8:16:32:64-S128"
target triple = "x86_64-pc-linux-gnu"

%struct.OSQPCscMatrix = type { i64, i64, ptr, ptr, ptr, i64, i64 }

; Function Attrs: nounwind uwtable
define void @update_KKT_param2(ptr noundef %0, ptr noundef %1, double noundef %2, ptr noundef %3, i64 noundef %4) #0 {
  %6 = alloca ptr, align 8
  %7 = alloca ptr, align 8
  %8 = alloca double, align 8
  %9 = alloca ptr, align 8
  %10 = alloca i64, align 8
  %11 = alloca i64, align 8
  store ptr %0, ptr %6, align 8, !tbaa !3
  store ptr %1, ptr %7, align 8, !tbaa !11
  store double %2, ptr %8, align 8, !tbaa !9
  store ptr %3, ptr %9, align 8, !tbaa !13
  store i64 %4, ptr %10, align 8, !tbaa !7
  call void @llvm.lifetime.start.p0(i64 8, ptr %11) #3
  %12 = load ptr, ptr %7, align 8, !tbaa !11
  %13 = icmp ne ptr %12, null
  br i1 %13, label %14, label %37

14:                                               ; preds = %5
  store i64 0, ptr %11, align 8, !tbaa !7
  br label %15

15:                                               ; preds = %33, %14
  %16 = load i64, ptr %11, align 8, !tbaa !7
  %17 = load i64, ptr %10, align 8, !tbaa !7
  %18 = icmp slt i64 %16, %17
  br i1 %18, label %19, label %36

19:                                               ; preds = %15
  %20 = load ptr, ptr %7, align 8, !tbaa !11
  %21 = load i64, ptr %11, align 8, !tbaa !7
  %22 = getelementptr inbounds double, ptr %20, i64 %21
  %23 = load double, ptr %22, align 8, !tbaa !9
  %24 = fneg double %23
  %25 = load ptr, ptr %6, align 8, !tbaa !3
  %26 = getelementptr inbounds nuw %struct.OSQPCscMatrix, ptr %25, i32 0, i32 4
  %27 = load ptr, ptr %26, align 8, !tbaa !24
  %28 = load ptr, ptr %9, align 8, !tbaa !13
  %29 = load i64, ptr %11, align 8, !tbaa !7
  %30 = getelementptr inbounds i64, ptr %28, i64 %29
  %31 = load i64, ptr %30, align 8, !tbaa !7
  %32 = getelementptr inbounds double, ptr %27, i64 %31
  store double %24, ptr %32, align 8, !tbaa !9
  br label %33

33:                                               ; preds = %19
  %34 = load i64, ptr %11, align 8, !tbaa !7
  %35 = add nsw i64 %34, 1
  store i64 %35, ptr %11, align 8, !tbaa !7
  br label %15, !llvm.loop !30

36:                                               ; preds = %15
  br label %57

37:                                               ; preds = %5
  store i64 0, ptr %11, align 8, !tbaa !7
  br label %38

38:                                               ; preds = %53, %37
  %39 = load i64, ptr %11, align 8, !tbaa !7
  %40 = load i64, ptr %10, align 8, !tbaa !7
  %41 = icmp slt i64 %39, %40
  br i1 %41, label %42, label %56

42:                                               ; preds = %38
  %43 = load double, ptr %8, align 8, !tbaa !9
  %44 = fneg double %43
  %45 = load ptr, ptr %6, align 8, !tbaa !3
  %46 = getelementptr inbounds nuw %struct.OSQPCscMatrix, ptr %45, i32 0, i32 4
  %47 = load ptr, ptr %46, align 8, !tbaa !24
  %48 = load ptr, ptr %9, align 8, !tbaa !13
  %49 = load i64, ptr %11, align 8, !tbaa !7
  %50 = getelementptr inbounds i64, ptr %48, i64 %49
  %51 = load i64, ptr %50, align 8, !tbaa !7
  %52 = getelementptr inbounds double, ptr %47, i64 %51
  store double %44, ptr %52, align 8, !tbaa !9
  br label %53

53:                                               ; preds = %42
  %54 = load i64, ptr %11, align 8, !tbaa !7
  %55 = add nsw i64 %54, 1
  store i64 %55, ptr %11, align 8, !tbaa !7
  br label %38, !llvm.loop !31

56:                                               ; preds = %38
  br label %57

57:                                               ; preds = %56, %36
  call void @llvm.lifetime.end.p0(i64 8, ptr %11) #3
  ret void
}