; Function Attrs: nofree norecurse nosync nounwind memory(write, argmem: readwrite, inaccessiblemem: none) uwtable
define void @update_KKT_param2(ptr noundef readonly captures(none) %0, ptr noundef readonly captures(address_is_null) %1, double noundef %2, ptr noundef readonly captures(none) %3, i64 noundef %4) local_unnamed_addr #3 {
  %.not = icmp eq ptr %1, null
  %6 = icmp sgt i64 %4, 0
  br i1 %.not, label %.preheader, label %.preheader16

.preheader16:                                     ; preds = %5
  br i1 %6, label %.lr.ph, label %.loopexit

.lr.ph:                                           ; preds = %.preheader16
  %7 = getelementptr inbounds nuw i8, ptr %0, i64 32
  %8 = load ptr, ptr %7, align 8, !tbaa !23
  br label %12

.preheader:                                       ; preds = %5
  br i1 %6, label %.lr.ph20, label %.loopexit

.lr.ph20:                                         ; preds = %.preheader
  %9 = fneg double %2
  %10 = getelementptr inbounds nuw i8, ptr %0, i64 32
  %11 = load ptr, ptr %10, align 8, !tbaa !23
  br label %20

12:                                               ; preds = %.lr.ph, %12
  %.018 = phi i64 [ 0, %.lr.ph ], [ %19, %12 ]
  %13 = getelementptr inbounds nuw double, ptr %1, i64 %.018
  %14 = load double, ptr %13, align 8, !tbaa !24
  %15 = fneg double %14
  %16 = getelementptr inbounds nuw i64, ptr %3, i64 %.018
  %17 = load i64, ptr %16, align 8, !tbaa !13
  %18 = getelementptr inbounds double, ptr %8, i64 %17
  store double %15, ptr %18, align 8, !tbaa !24
  %19 = add nuw nsw i64 %.018, 1
  %exitcond.not = icmp eq i64 %19, %4
  br i1 %exitcond.not, label %.loopexit, label %12, !llvm.loop !35

20:                                               ; preds = %.lr.ph20, %20
  %.119 = phi i64 [ 0, %.lr.ph20 ], [ %24, %20 ]
  %21 = getelementptr inbounds nuw i64, ptr %3, i64 %.119
  %22 = load i64, ptr %21, align 8, !tbaa !13
  %23 = getelementptr inbounds double, ptr %11, i64 %22
  store double %9, ptr %23, align 8, !tbaa !24
  %24 = add nuw nsw i64 %.119, 1
  %exitcond22.not = icmp eq i64 %24, %4
  br i1 %exitcond22.not, label %.loopexit, label %20, !llvm.loop !36

.loopexit:                                        ; preds = %12, %20, %.preheader16, %.preheader
  ret void
}